target datalayout = "e-m:e-p270:32:32-p271:32:32-p272:64:64-i64:64-i128:128-f80:128-n8:16:32:64-S128"
target triple = "x86_64-pc-linux-gnu"

%struct.cli_ftw_cbdata = type { ptr }
%struct.client_parallel_data = type { i32, i32, i32, i32, i32, i32, i32, ptr }

@printinfected = dso_local global i32 0, align 4
@.str = private unnamed_addr constant [8 x i8] c"%s: OK\0A\00", align 1
@__const.parallel_client_scan.zIDSESSION = private unnamed_addr constant [11 x i8] c"zIDSESSION\00", align 1
@__const.parallel_client_scan.zEND = private unnamed_addr constant [5 x i8] c"zEND\00", align 1
@clamdopts = external global ptr, align 8
@.str.2 = private unnamed_addr constant [56 x i8] c"Clamd closed the connection before scanning all files.\0A\00", align 1

; Function Attrs: nounwind uwtable
define dso_local i32 @parallel_client_scan(ptr noundef %0, i32 noundef %1, ptr noundef %2, ptr noundef %3, i32 noundef %4, i32 noundef %5) #0 {
  %7 = alloca i32, align 4
  %8 = alloca ptr, align 8
  %9 = alloca i32, align 4
  %10 = alloca ptr, align 8
  %11 = alloca ptr, align 8
  %12 = alloca i32, align 4
  %13 = alloca i32, align 4
  %14 = alloca %struct.cli_ftw_cbdata, align 8
  %15 = alloca %struct.client_parallel_data, align 8
  %16 = alloca i32, align 4
  %17 = alloca [11 x i8], align 1
  %18 = alloca [5 x i8], align 1
  store ptr %0, ptr %8, align 8
  store i32 %1, ptr %9, align 4
  store ptr %2, ptr %10, align 8
  store ptr %3, ptr %11, align 8
  store i32 %4, ptr %12, align 4
  store i32 %5, ptr %13, align 4
  call void @llvm.memcpy.p0.p0.i64(ptr align 1 %17, ptr align 1 @__const.parallel_client_scan.zIDSESSION, i64 11, i1 false)
  call void @llvm.memcpy.p0.p0.i64(ptr align 1 %18, ptr align 1 @__const.parallel_client_scan.zEND, i64 5, i1 false)
  %19 = load ptr, ptr @clamdopts, align 8
  %20 = call i32 @dconnect(ptr noundef %19)
  %21 = getelementptr inbounds %struct.client_parallel_data, ptr %15, i32 0, i32 4
  store i32 %20, ptr %21, align 8
  %22 = icmp slt i32 %20, 0
  br i1 %22, label %23, label %24

23:                                               ; preds = %6
  store i32 1, ptr %7, align 4
  br label %125

24:                                               ; preds = %6
  %25 = getelementptr inbounds %struct.client_parallel_data, ptr %15, i32 0, i32 4
  %26 = load i32, ptr %25, align 8
  %27 = getelementptr inbounds [11 x i8], ptr %17, i64 0, i64 0
  %28 = call i32 @sendln(i32 noundef %26, ptr noundef %27, i32 noundef 11)
  %29 = icmp ne i32 %28, 0
  br i1 %29, label %30, label %34

30:                                               ; preds = %24
  %31 = getelementptr inbounds %struct.client_parallel_data, ptr %15, i32 0, i32 4
  %32 = load i32, ptr %31, align 8
  %33 = call i32 @close(i32 noundef %32)
  store i32 1, ptr %7, align 4
  br label %125

34:                                               ; preds = %24
  %35 = getelementptr inbounds %struct.client_parallel_data, ptr %15, i32 0, i32 0
  store i32 0, ptr %35, align 8
  %36 = getelementptr inbounds %struct.client_parallel_data, ptr %15, i32 0, i32 1
  store i32 0, ptr %36, align 4
  %37 = getelementptr inbounds %struct.client_parallel_data, ptr %15, i32 0, i32 2
  store i32 0, ptr %37, align 8
  %38 = load i32, ptr %9, align 4
  %39 = getelementptr inbounds %struct.client_parallel_data, ptr %15, i32 0, i32 3
  store i32 %38, ptr %39, align 4
  %40 = getelementptr inbounds %struct.client_parallel_data, ptr %15, i32 0, i32 5
  store i32 0, ptr %40, align 4
  %41 = getelementptr inbounds %struct.client_parallel_data, ptr %15, i32 0, i32 7
  store ptr null, ptr %41, align 8
  %42 = load i32, ptr @printinfected, align 4
  %43 = xor i32 %42, 1
  %44 = getelementptr inbounds %struct.client_parallel_data, ptr %15, i32 0, i32 6
  store i32 %43, ptr %44, align 8
  %45 = getelementptr inbounds %struct.cli_ftw_cbdata, ptr %14, i32 0, i32 0
  store ptr %15, ptr %45, align 8
  %46 = load ptr, ptr %8, align 8
  %47 = load i32, ptr %13, align 4
  %48 = load i32, ptr %12, align 4
  %49 = icmp ne i32 %48, 0
  br i1 %49, label %50, label %52

50:                                               ; preds = %34
  %51 = load i32, ptr %12, align 4
  br label %53

52:                                               ; preds = %34
  br label %53

53:                                               ; preds = %52, %50
  %54 = phi i32 [ %51, %50 ], [ 2147483647, %52 ]
  %55 = call i32 @cli_ftw(ptr noundef %46, i32 noundef %47, i32 noundef %54, ptr noundef @parallel_callback, ptr noundef %14, ptr noundef @ftw_chkpath)
  store i32 %55, ptr %16, align 4
  %56 = load i32, ptr %16, align 4
  %57 = icmp ne i32 %56, 0
  br i1 %57, label %58, label %72

58:                                               ; preds = %53
  %59 = getelementptr inbounds %struct.client_parallel_data, ptr %15, i32 0, i32 2
  %60 = load i32, ptr %59, align 8
  %61 = load ptr, ptr %11, align 8
  %62 = load i32, ptr %61, align 4
  %63 = add nsw i32 %62, %60
  store i32 %63, ptr %61, align 4
  %64 = getelementptr inbounds %struct.client_parallel_data, ptr %15, i32 0, i32 0
  %65 = load i32, ptr %64, align 8
  %66 = load ptr, ptr %10, align 8
  %67 = load i32, ptr %66, align 4
  %68 = add nsw i32 %67, %65
  store i32 %68, ptr %66, align 4
  %69 = getelementptr inbounds %struct.client_parallel_data, ptr %15, i32 0, i32 4
  %70 = load i32, ptr %69, align 8
  %71 = call i32 @close(i32 noundef %70)
  store i32 1, ptr %7, align 4
  br label %125

72:                                               ; preds = %53
  %73 = getelementptr inbounds %struct.client_parallel_data, ptr %15, i32 0, i32 4
  %74 = load i32, ptr %73, align 8
  %75 = getelementptr inbounds [5 x i8], ptr %18, i64 0, i64 0
  %76 = call i32 @sendln(i32 noundef %74, ptr noundef %75, i32 noundef 5)
  br label %77

77:                                               ; preds = %87, %72
  %78 = getelementptr inbounds %struct.client_parallel_data, ptr %15, i32 0, i32 7
  %79 = load ptr, ptr %78, align 8
  %80 = icmp ne ptr %79, null
  br i1 %80, label %81, label %85

81:                                               ; preds = %77
  %82 = call i32 @dspresult(ptr noundef %15)
  %83 = icmp ne i32 %82, 0
  %84 = xor i1 %83, true
  br label %85

85:                                               ; preds = %81, %77
  %86 = phi i1 [ false, %77 ], [ %84, %81 ]
  br i1 %86, label %87, label %88

87:                                               ; preds = %85
  br label %77

88:                                               ; preds = %85
  %89 = getelementptr inbounds %struct.client_parallel_data, ptr %15, i32 0, i32 4
  %90 = load i32, ptr %89, align 8
  %91 = call i32 @close(i32 noundef %90)
  %92 = getelementptr inbounds %struct.client_parallel_data, ptr %15, i32 0, i32 0
  %93 = load i32, ptr %92, align 8
  %94 = load ptr, ptr %10, align 8
  %95 = load i32, ptr %94, align 4
  %96 = add nsw i32 %95, %93
  store i32 %96, ptr %94, align 4
  %97 = getelementptr inbounds %struct.client_parallel_data, ptr %15, i32 0, i32 2
  %98 = load i32, ptr %97, align 8
  %99 = load ptr, ptr %11, align 8
  %100 = load i32, ptr %99, align 4
  %101 = add nsw i32 %100, %98
  store i32 %101, ptr %99, align 4
  %102 = getelementptr inbounds %struct.client_parallel_data, ptr %15, i32 0, i32 7
  %103 = load ptr, ptr %102, align 8
  %104 = icmp ne ptr %103, null
  br i1 %104, label %105, label %107

105:                                              ; preds = %88
  %106 = call i32 (i32, ptr, ...) @logg(i32 noundef 5, ptr noundef @.str.2)
  store i32 1, ptr %7, align 4
  br label %125

107:                                              ; preds = %88
  %108 = getelementptr inbounds %struct.client_parallel_data, ptr %15, i32 0, i32 2
  %109 = load i32, ptr %108, align 8
  %110 = icmp ne i32 %109, 0
  br i1 %110, label %111, label %112

111:                                              ; preds = %107
  store i32 1, ptr %7, align 4
  br label %125

112:                                              ; preds = %107
  %113 = getelementptr inbounds %struct.client_parallel_data, ptr %15, i32 0, i32 1
  %114 = load i32, ptr %113, align 4
  %115 = icmp ne i32 %114, 0
  br i1 %115, label %117, label %116

116:                                              ; preds = %112
  store i32 0, ptr %7, align 4
  br label %125

117:                                              ; preds = %112
  %118 = getelementptr inbounds %struct.client_parallel_data, ptr %15, i32 0, i32 6
  %119 = load i32, ptr %118, align 8
  %120 = icmp ne i32 %119, 0
  br i1 %120, label %121, label %124

121:                                              ; preds = %117
  %122 = load ptr, ptr %8, align 8
  %123 = call i32 (i32, ptr, ...) @logg(i32 noundef 0, ptr noundef @.str, ptr noundef %122)
  br label %124

124:                                              ; preds = %121, %117
  store i32 0, ptr %7, align 4
  br label %125

125:                                              ; preds = %124, %116, %111, %105, %58, %30, %23
  %126 = load i32, ptr %7, align 4
  ret i32 %126
}