; Function Attrs: nounwind uwtable
define dso_local range(i32 0, 2) i32 @parallel_client_scan(ptr noundef %0, i32 noundef %1, ptr noundef captures(none) %2, ptr noundef captures(none) %3, i32 noundef %4, i32 noundef %5) local_unnamed_addr #0 {
  %7 = alloca %struct.cli_ftw_cbdata, align 8
  %8 = alloca %struct.client_parallel_data, align 8
  %9 = alloca [11 x i8], align 1
  %10 = alloca [5 x i8], align 1
  call void @llvm.memcpy.p0.p0.i64(ptr noundef nonnull align 1 dereferenceable(11) %9, ptr noundef nonnull align 1 dereferenceable(11) @__const.parallel_client_scan.zIDSESSION, i64 11, i1 false)
  call void @llvm.memcpy.p0.p0.i64(ptr noundef nonnull align 1 dereferenceable(5) %10, ptr noundef nonnull align 1 dereferenceable(5) @__const.parallel_client_scan.zEND, i64 5, i1 false)
  %11 = load ptr, ptr @clamdopts, align 8
  %12 = tail call i32 @dconnect(ptr noundef %11) #11
  %13 = getelementptr inbounds nuw i8, ptr %8, i64 16
  store i32 %12, ptr %13, align 8
  %14 = icmp slt i32 %12, 0
  br i1 %14, label %62, label %15

15:                                               ; preds = %6
  %16 = call i32 @sendln(i32 noundef %12, ptr noundef nonnull %9, i32 noundef 11) #11
  %.not = icmp eq i32 %16, 0
  br i1 %.not, label %19, label %17

17:                                               ; preds = %15
  %18 = call i32 @close(i32 noundef %12) #11
  br label %62

19:                                               ; preds = %15
  store i32 0, ptr %8, align 8
  %20 = getelementptr inbounds nuw i8, ptr %8, i64 4
  store i32 0, ptr %20, align 4
  %21 = getelementptr inbounds nuw i8, ptr %8, i64 8
  store i32 0, ptr %21, align 8
  %22 = getelementptr inbounds nuw i8, ptr %8, i64 12
  store i32 %1, ptr %22, align 4
  %23 = getelementptr inbounds nuw i8, ptr %8, i64 20
  store i32 0, ptr %23, align 4
  %24 = getelementptr inbounds nuw i8, ptr %8, i64 32
  store ptr null, ptr %24, align 8
  %25 = load i32, ptr @printinfected, align 4
  %26 = xor i32 %25, 1
  %27 = getelementptr inbounds nuw i8, ptr %8, i64 24
  store i32 %26, ptr %27, align 8
  store ptr %8, ptr %7, align 8
  %.not14 = icmp eq i32 %4, 0
  %28 = select i1 %.not14, i32 2147483647, i32 %4
  %29 = call i32 @cli_ftw(ptr noundef %0, i32 noundef %5, i32 noundef %28, ptr noundef nonnull @parallel_callback, ptr noundef nonnull %7, ptr noundef nonnull @ftw_chkpath) #11
  %.not15 = icmp eq i32 %29, 0
  br i1 %.not15, label %39, label %30

30:                                               ; preds = %19
  %31 = load i32, ptr %21, align 8
  %32 = load i32, ptr %3, align 4
  %33 = add nsw i32 %32, %31
  store i32 %33, ptr %3, align 4
  %34 = load i32, ptr %8, align 8
  %35 = load i32, ptr %2, align 4
  %36 = add nsw i32 %35, %34
  store i32 %36, ptr %2, align 4
  %37 = load i32, ptr %13, align 8
  %38 = call i32 @close(i32 noundef %37) #11
  br label %62

39:                                               ; preds = %19
  %40 = load i32, ptr %13, align 8
  %41 = call i32 @sendln(i32 noundef %40, ptr noundef nonnull %10, i32 noundef 5) #11
  %.old1 = load ptr, ptr %24, align 8
  %.old2.not = icmp eq ptr %.old1, null
  br i1 %.old2.not, label %.critedge, label %.preheader

.preheader:                                       ; preds = %39, %.preheader
  %42 = call fastcc i32 @dspresult(ptr noundef nonnull %8)
  %.not16 = icmp eq i32 %42, 0
  %43 = load ptr, ptr %24, align 8
  %44 = icmp ne ptr %43, null
  %or.cond = select i1 %.not16, i1 %44, i1 false
  br i1 %or.cond, label %.preheader, label %.critedge

.critedge:                                        ; preds = %.preheader, %39
  %45 = load i32, ptr %13, align 8
  %46 = call i32 @close(i32 noundef %45) #11
  %47 = load i32, ptr %8, align 8
  %48 = load i32, ptr %2, align 4
  %49 = add nsw i32 %48, %47
  store i32 %49, ptr %2, align 4
  %50 = load i32, ptr %21, align 8
  %51 = load i32, ptr %3, align 4
  %52 = add nsw i32 %51, %50
  store i32 %52, ptr %3, align 4
  %53 = load ptr, ptr %24, align 8
  %.not17 = icmp eq ptr %53, null
  br i1 %.not17, label %56, label %54

54:                                               ; preds = %.critedge
  %55 = call i32 (i32, ptr, ...) @logg(i32 noundef 5, ptr noundef nonnull @.str.2) #11
  br label %62

56:                                               ; preds = %.critedge
  %.not18 = icmp eq i32 %50, 0
  br i1 %.not18, label %57, label %62

57:                                               ; preds = %56
  %58 = load i32, ptr %20, align 4
  %.not19 = icmp eq i32 %58, 0
  %59 = load i32, ptr %27, align 8
  %.not20 = icmp eq i32 %59, 0
  %or.cond21 = select i1 %.not19, i1 true, i1 %.not20
  br i1 %or.cond21, label %62, label %60

60:                                               ; preds = %57
  %61 = call i32 (i32, ptr, ...) @logg(i32 noundef 0, ptr noundef nonnull @.str, ptr noundef %0) #11
  br label %62

62:                                               ; preds = %60, %57, %56, %6, %54, %30, %17
  %.0 = phi i32 [ 1, %17 ], [ 1, %30 ], [ 1, %54 ], [ 1, %6 ], [ 1, %56 ], [ 0, %57 ], [ 0, %60 ]
  ret i32 %.0
}